; ModuleID = 'source-C-CXX/59/1523.c'
source_filename = "source-C-CXX/59/1523.c"
target datalayout = "e-m:e-p270:32:32-p271:32:32-p272:64:64-i64:64-f80:128-n8:16:32:64-S128"
target triple = "x86_64-pc-linux-gnu"

@.str = private unnamed_addr constant [3 x i8] c"%d\00", align 1
@.str.1 = private unnamed_addr constant [6 x i8] c"empty\00", align 1
@.str.2 = private unnamed_addr constant [7 x i8] c"%d %d\0A\00", align 1

; Function Attrs: nofree nounwind sspstrong uwtable
define dso_local i32 @main() local_unnamed_addr #0 {
  %1 = alloca i32, align 4
  %2 = alloca [10000 x i32], align 16
  %3 = bitcast i32* %1 to i8*
  call void @llvm.lifetime.start.p0i8(i64 4, i8* nonnull %3) #4
  %4 = bitcast [10000 x i32]* %2 to i8*
  call void @llvm.lifetime.start.p0i8(i64 40000, i8* nonnull %4) #4
  %5 = call i32 (i8*, ...) @__isoc99_scanf(i8* getelementptr inbounds ([3 x i8], [3 x i8]* @.str, i64 0, i64 0), i32* nonnull %1)
  %6 = load i32, i32* %1, align 4, !tbaa !5
  %7 = icmp slt i32 %6, 5
  br i1 %7, label %8, label %10

8:                                                ; preds = %0
  %9 = call i32 (i8*, ...) @printf(i8* nonnull dereferenceable(1) getelementptr inbounds ([6 x i8], [6 x i8]* @.str.1, i64 0, i64 0))
  br label %52

10:                                               ; preds = %0, %35
  %11 = phi i32 [ %36, %35 ], [ 0, %0 ]
  %12 = phi i32 [ %37, %35 ], [ 3, %0 ]
  %13 = sitofp i32 %12 to double
  %14 = call double @sqrt(double %13) #4
  %15 = fadd double %14, 1.000000e+00
  %16 = fcmp ogt double %15, 2.000000e+00
  br i1 %16, label %26, label %31

17:                                               ; preds = %35
  %18 = getelementptr inbounds [10000 x i32], [10000 x i32]* %2, i64 0, i64 0
  %19 = load i32, i32* %18, align 16, !tbaa !5
  %20 = icmp eq i32 %19, 0
  br i1 %20, label %52, label %40

21:                                               ; preds = %26
  %22 = sitofp i32 %30 to double
  %23 = call double @sqrt(double %13) #4
  %24 = fadd double %23, 1.000000e+00
  %25 = fcmp ogt double %24, %22
  br i1 %25, label %26, label %31, !llvm.loop !9

26:                                               ; preds = %10, %21
  %27 = phi i32 [ %30, %21 ], [ 2, %10 ]
  %28 = urem i32 %12, %27
  %29 = icmp eq i32 %28, 0
  %30 = add nuw nsw i32 %27, 1
  br i1 %29, label %35, label %21

31:                                               ; preds = %21, %10
  %32 = sext i32 %11 to i64
  %33 = getelementptr inbounds [10000 x i32], [10000 x i32]* %2, i64 0, i64 %32
  store i32 %12, i32* %33, align 4, !tbaa !5
  %34 = add nsw i32 %11, 1
  br label %35

35:                                               ; preds = %26, %31
  %36 = phi i32 [ %34, %31 ], [ %11, %26 ]
  %37 = add nuw nsw i32 %12, 2
  %38 = load i32, i32* %1, align 4, !tbaa !5
  %39 = icmp sgt i32 %37, %38
  br i1 %39, label %17, label %10, !llvm.loop !11

40:                                               ; preds = %17, %50
  %41 = phi i64 [ %43, %50 ], [ 0, %17 ]
  %42 = phi i32 [ %45, %50 ], [ %19, %17 ]
  %43 = add nuw nsw i64 %41, 1
  %44 = getelementptr inbounds [10000 x i32], [10000 x i32]* %2, i64 0, i64 %43
  %45 = load i32, i32* %44, align 4, !tbaa !5
  %46 = add nsw i32 %42, 2
  %47 = icmp eq i32 %45, %46
  br i1 %47, label %48, label %50

48:                                               ; preds = %40
  %49 = call i32 (i8*, ...) @printf(i8* nonnull dereferenceable(1) getelementptr inbounds ([7 x i8], [7 x i8]* @.str.2, i64 0, i64 0), i32 %42, i32 %45)
  br label %50

50:                                               ; preds = %40, %48
  %51 = icmp eq i32 %45, 0
  br i1 %51, label %52, label %40, !llvm.loop !12

52:                                               ; preds = %50, %17, %8
  call void @llvm.lifetime.end.p0i8(i64 40000, i8* nonnull %4) #4
  call void @llvm.lifetime.end.p0i8(i64 4, i8* nonnull %3) #4
  ret i32 0
}

; Function Attrs: argmemonly mustprogress nofree nosync nounwind willreturn
declare void @llvm.lifetime.start.p0i8(i64 immarg, i8* nocapture) #1

; Function Attrs: nofree nounwind
declare noundef i32 @__isoc99_scanf(i8* nocapture noundef readonly, ...) local_unnamed_addr #2

; Function Attrs: nofree nounwind
declare noundef i32 @printf(i8* nocapture noundef readonly, ...) local_unnamed_addr #2

; Function Attrs: mustprogress nofree nounwind willreturn
declare double @sqrt(double) local_unnamed_addr #3

; Function Attrs: argmemonly mustprogress nofree nosync nounwind willreturn
declare void @llvm.lifetime.end.p0i8(i64 immarg, i8* nocapture) #1


!llvm.module.flags = !{!0, !1, !2, !3}
!llvm.ident = !{!4}

!0 = !{i32 1, !"wchar_size", i32 4}
!1 = !{i32 7, !"PIC Level", i32 2}
!2 = !{i32 7, !"PIE Level", i32 2}
!3 = !{i32 7, !"uwtable", i32 1}
!4 = !{!"clang version 13.0.0"}
!5 = !{!6, !6, i64 0}
!6 = !{!"int", !7, i64 0}
!7 = !{!"omnipotent char", !8, i64 0}
!8 = !{!"Simple C/C++ TBAA"}
!9 = distinct !{!9, !10}
!10 = !{!"llvm.loop.mustprogress"}
!11 = distinct !{!11, !10}
!12 = distinct !{!12, !10}
